; Function Attrs: nounwind uwtable
define internal fastcc void @imageio_reset(ptr noundef %0, ptr noundef %1, ptr nocapture noundef %2) unnamed_addr #1 {
  %4 = alloca [200 x i8], align 16
  %5 = getelementptr inbounds i8, ptr %2, i64 16
  %6 = load ptr, ptr %5, align 8
  %.not.i.i = icmp eq ptr %6, null
  br i1 %.not.i.i, label %11, label %7

7:                                                ; preds = %3
  %8 = load ptr, ptr %0, align 8
  %9 = getelementptr inbounds i8, ptr %8, i64 1816
  %10 = load ptr, ptr %9, align 8
  call void %10(ptr noundef nonnull %0, ptr noundef nonnull %6) #13
  store ptr null, ptr %5, align 8
  br label %11

11:                                               ; preds = %7, %3
  %12 = getelementptr inbounds i8, ptr %2, i64 32
  %13 = load ptr, ptr %12, align 8
  %.not.i.i.i = icmp eq ptr %13, null
  br i1 %.not.i.i.i, label %resetStreamBuffer.exit.i, label %14

14:                                               ; preds = %11
  %15 = getelementptr inbounds i8, ptr %2, i64 40
  store i64 -1, ptr %15, align 8
  %16 = load ptr, ptr %0, align 8
  %17 = getelementptr inbounds i8, ptr %16, i64 1784
  %18 = load ptr, ptr %17, align 8
  %19 = getelementptr inbounds i8, ptr %2, i64 24
  %20 = load ptr, ptr %19, align 8
  call void %18(ptr noundef nonnull %0, ptr noundef %20, ptr noundef nonnull %13, i32 noundef 0) #13
  store ptr null, ptr %12, align 8
  br label %resetStreamBuffer.exit.i

resetStreamBuffer.exit.i:                         ; preds = %14, %11
  %21 = getelementptr inbounds i8, ptr %2, i64 40
  store i64 -1, ptr %21, align 8
  %22 = getelementptr inbounds i8, ptr %2, i64 56
  store i32 0, ptr %22, align 8
  %23 = getelementptr inbounds i8, ptr %2, i64 64
  store i64 0, ptr %23, align 8
  %24 = getelementptr inbounds i8, ptr %2, i64 72
  %25 = load ptr, ptr %24, align 8
  %.not.i5.i = icmp eq ptr %25, null
  br i1 %.not.i5.i, label %resetImageIOData.exit, label %26

26:                                               ; preds = %resetStreamBuffer.exit.i
  %27 = getelementptr inbounds i8, ptr %2, i64 88
  %28 = load ptr, ptr %27, align 8
  %.not.i.i6.i = icmp eq ptr %28, null
  br i1 %.not.i.i6.i, label %unpinPixelBuffer.exit.i.i, label %29

29:                                               ; preds = %26
  %30 = load ptr, ptr %0, align 8
  %31 = getelementptr inbounds i8, ptr %30, i64 1784
  %32 = load ptr, ptr %31, align 8
  call void %32(ptr noundef nonnull %0, ptr noundef nonnull %25, ptr noundef nonnull %28, i32 noundef 0) #13
  store ptr null, ptr %27, align 8
  %.pre.i.i = load ptr, ptr %24, align 8
  br label %unpinPixelBuffer.exit.i.i

unpinPixelBuffer.exit.i.i:                        ; preds = %29, %26
  %33 = phi ptr [ %25, %26 ], [ %.pre.i.i, %29 ]
  %34 = load ptr, ptr %0, align 8
  %35 = getelementptr inbounds i8, ptr %34, i64 176
  %36 = load ptr, ptr %35, align 8
  call void %36(ptr noundef nonnull %0, ptr noundef %33) #13
  store ptr null, ptr %24, align 8
  %37 = getelementptr inbounds i8, ptr %2, i64 80
  store i32 0, ptr %37, align 8
  br label %resetImageIOData.exit

resetImageIOData.exit:                            ; preds = %resetStreamBuffer.exit.i, %unpinPixelBuffer.exit.i.i
  %38 = getelementptr inbounds i8, ptr %2, i64 96
  store i8 0, ptr %38, align 8
  %39 = load ptr, ptr %1, align 8
  %40 = getelementptr inbounds i8, ptr %39, i64 168
  %41 = call i32 @_setjmp(ptr noundef nonnull %40) #15
  %.not = icmp eq i32 %41, 0
  br i1 %.not, label %51, label %42

42:                                               ; preds = %resetImageIOData.exit
  %43 = load ptr, ptr %0, align 8
  %44 = getelementptr inbounds i8, ptr %43, i64 120
  %45 = load ptr, ptr %44, align 8
  %46 = call ptr %45(ptr noundef nonnull %0) #13
  %.not10 = icmp eq ptr %46, null
  br i1 %.not10, label %47, label %52

47:                                               ; preds = %42
  %48 = load ptr, ptr %1, align 8
  %49 = getelementptr inbounds i8, ptr %48, i64 24
  %50 = load ptr, ptr %49, align 8
  call void %50(ptr noundef nonnull %1, ptr noundef nonnull %4) #13
  call void @JNU_ThrowByName(ptr noundef nonnull %0, ptr noundef nonnull @.str.24, ptr noundef nonnull %4) #13
  br label %52

51:                                               ; preds = %resetImageIOData.exit
  call void @jAbort(ptr noundef nonnull %1) #13
  br label %52

52:                                               ; preds = %42, %47, %51
  ret void
}